target datalayout = "e-m:e-p270:32:32-p271:32:32-p272:64:64-i64:64-i128:128-f80:128-n8:16:32:64-S128"
target triple = "x86_64-pc-linux-gnu"

%struct.lua_State = type { %struct.GCRef, i8, i8, i8, i8, %struct.MRef, %struct.GCRef, ptr, ptr, %struct.MRef, %struct.MRef, %struct.GCRef, %struct.GCRef, ptr, i32 }
%struct.MRef = type { i64 }
%struct.GCRef = type { i64 }
%union.TValue = type { i64 }

; Function Attrs: nounwind uwtable
define dso_local void @lua_settop(ptr noundef %0, i32 noundef %1) #0 {
  %3 = alloca ptr, align 8
  %4 = alloca i32, align 4
  store ptr %0, ptr %3, align 8, !tbaa !4
  store i32 %1, ptr %4, align 4, !tbaa !16
  %5 = load i32, ptr %4, align 4, !tbaa !16
  %6 = icmp sge i32 %5, 0
  br i1 %6, label %7, label %74

7:                                                ; preds = %2
  %8 = load ptr, ptr %3, align 8, !tbaa !4
  %9 = getelementptr inbounds nuw %struct.lua_State, ptr %8, i32 0, i32 7
  %10 = load ptr, ptr %9, align 8, !tbaa !18
  %11 = load i32, ptr %4, align 4, !tbaa !16
  %12 = sext i32 %11 to i64
  %13 = getelementptr inbounds %union.TValue, ptr %10, i64 %12
  %14 = load ptr, ptr %3, align 8, !tbaa !4
  %15 = getelementptr inbounds nuw %struct.lua_State, ptr %14, i32 0, i32 8
  %16 = load ptr, ptr %15, align 8, !tbaa !17
  %17 = icmp ugt ptr %13, %16
  br i1 %17, label %18, label %64

18:                                               ; preds = %7
  %19 = load ptr, ptr %3, align 8, !tbaa !4
  %20 = getelementptr inbounds nuw %struct.lua_State, ptr %19, i32 0, i32 7
  %21 = load ptr, ptr %20, align 8, !tbaa !18
  %22 = load i32, ptr %4, align 4, !tbaa !16
  %23 = sext i32 %22 to i64
  %24 = getelementptr inbounds %union.TValue, ptr %21, i64 %23
  %25 = load ptr, ptr %3, align 8, !tbaa !4
  %26 = getelementptr inbounds nuw %struct.lua_State, ptr %25, i32 0, i32 9
  %27 = getelementptr inbounds nuw %struct.MRef, ptr %26, i32 0, i32 0
  %28 = load i64, ptr %27, align 8, !tbaa !19
  %29 = inttoptr i64 %28 to ptr
  %30 = icmp uge ptr %24, %29
  br i1 %30, label %31, label %46

31:                                               ; preds = %18
  %32 = load ptr, ptr %3, align 8, !tbaa !4
  %33 = load i32, ptr %4, align 4, !tbaa !16
  %34 = load ptr, ptr %3, align 8, !tbaa !4
  %35 = getelementptr inbounds nuw %struct.lua_State, ptr %34, i32 0, i32 8
  %36 = load ptr, ptr %35, align 8, !tbaa !17
  %37 = load ptr, ptr %3, align 8, !tbaa !4
  %38 = getelementptr inbounds nuw %struct.lua_State, ptr %37, i32 0, i32 7
  %39 = load ptr, ptr %38, align 8, !tbaa !18
  %40 = ptrtoint ptr %36 to i64
  %41 = ptrtoint ptr %39 to i64
  %42 = sub i64 %40, %41
  %43 = sdiv exact i64 %42, 8
  %44 = trunc i64 %43 to i32
  %45 = sub i32 %33, %44
  call void @lj_state_growstack(ptr noundef %32, i32 noundef %45)
  br label %46

46:                                               ; preds = %31, %18
  br label %47

47:                                               ; preds = %52, %46
  %48 = load ptr, ptr %3, align 8, !tbaa !4
  %49 = getelementptr inbounds nuw %struct.lua_State, ptr %48, i32 0, i32 8
  %50 = load ptr, ptr %49, align 8, !tbaa !17
  %51 = getelementptr inbounds nuw %union.TValue, ptr %50, i32 1
  store ptr %51, ptr %49, align 8, !tbaa !17
  store i64 -1, ptr %50, align 8, !tbaa !26
  br label %52

52:                                               ; preds = %47
  %53 = load ptr, ptr %3, align 8, !tbaa !4
  %54 = getelementptr inbounds nuw %struct.lua_State, ptr %53, i32 0, i32 8
  %55 = load ptr, ptr %54, align 8, !tbaa !17
  %56 = load ptr, ptr %3, align 8, !tbaa !4
  %57 = getelementptr inbounds nuw %struct.lua_State, ptr %56, i32 0, i32 7
  %58 = load ptr, ptr %57, align 8, !tbaa !18
  %59 = load i32, ptr %4, align 4, !tbaa !16
  %60 = sext i32 %59 to i64
  %61 = getelementptr inbounds %union.TValue, ptr %58, i64 %60
  %62 = icmp ult ptr %55, %61
  br i1 %62, label %47, label %63, !llvm.loop !27

63:                                               ; preds = %52
  br label %73

64:                                               ; preds = %7
  %65 = load ptr, ptr %3, align 8, !tbaa !4
  %66 = getelementptr inbounds nuw %struct.lua_State, ptr %65, i32 0, i32 7
  %67 = load ptr, ptr %66, align 8, !tbaa !18
  %68 = load i32, ptr %4, align 4, !tbaa !16
  %69 = sext i32 %68 to i64
  %70 = getelementptr inbounds %union.TValue, ptr %67, i64 %69
  %71 = load ptr, ptr %3, align 8, !tbaa !4
  %72 = getelementptr inbounds nuw %struct.lua_State, ptr %71, i32 0, i32 8
  store ptr %70, ptr %72, align 8, !tbaa !17
  br label %73

73:                                               ; preds = %64, %63
  br label %82

74:                                               ; preds = %2
  %75 = load i32, ptr %4, align 4, !tbaa !16
  %76 = add nsw i32 %75, 1
  %77 = load ptr, ptr %3, align 8, !tbaa !4
  %78 = getelementptr inbounds nuw %struct.lua_State, ptr %77, i32 0, i32 8
  %79 = load ptr, ptr %78, align 8, !tbaa !17
  %80 = sext i32 %76 to i64
  %81 = getelementptr inbounds %union.TValue, ptr %79, i64 %80
  store ptr %81, ptr %78, align 8, !tbaa !17
  br label %82

82:                                               ; preds = %74, %73
  ret void
}