; Function Attrs: nounwind uwtable
define dso_local void @lua_settop(ptr noundef %0, i32 noundef %1) local_unnamed_addr #1 {
  %3 = icmp sgt i32 %1, -1
  br i1 %3, label %4, label %31

4:                                                ; preds = %2
  %5 = getelementptr inbounds nuw i8, ptr %0, i64 32
  %6 = load ptr, ptr %5, align 8, !tbaa !15
  %7 = zext nneg i32 %1 to i64
  %8 = getelementptr inbounds nuw %union.TValue, ptr %6, i64 %7
  %9 = getelementptr inbounds nuw i8, ptr %0, i64 40
  %10 = load ptr, ptr %9, align 8, !tbaa !14
  %11 = icmp ugt ptr %8, %10
  br i1 %11, label %12, label %30

12:                                               ; preds = %4
  %13 = getelementptr inbounds nuw i8, ptr %0, i64 48
  %14 = load i64, ptr %13, align 8, !tbaa !16
  %15 = inttoptr i64 %14 to ptr
  %.not = icmp ult ptr %8, %15
  br i1 %.not, label %.preheader, label %16

16:                                               ; preds = %12
  %17 = ptrtoint ptr %10 to i64
  %18 = ptrtoint ptr %6 to i64
  %19 = sub i64 %17, %18
  %20 = lshr exact i64 %19, 3
  %21 = trunc i64 %20 to i32
  %22 = sub i32 %1, %21
  tail call void @lj_state_growstack(ptr noundef nonnull %0, i32 noundef %22) #13
  %.pre.pre = load ptr, ptr %9, align 8, !tbaa !14
  br label %.preheader

.preheader:                                       ; preds = %16, %12
  %.ph = phi ptr [ %10, %12 ], [ %.pre.pre, %16 ]
  br label %23

23:                                               ; preds = %.preheader, %23
  %24 = phi ptr [ %26, %23 ], [ %.ph, %.preheader ]
  %25 = getelementptr inbounds nuw i8, ptr %24, i64 8
  store ptr %25, ptr %9, align 8, !tbaa !14
  store i64 -1, ptr %24, align 8, !tbaa !17
  %26 = load ptr, ptr %9, align 8, !tbaa !14
  %27 = load ptr, ptr %5, align 8, !tbaa !15
  %28 = getelementptr inbounds nuw %union.TValue, ptr %27, i64 %7
  %29 = icmp ult ptr %26, %28
  br i1 %29, label %23, label %.loopexit, !llvm.loop !20

30:                                               ; preds = %4
  store ptr %8, ptr %9, align 8, !tbaa !14
  br label %.loopexit

31:                                               ; preds = %2
  %32 = getelementptr inbounds nuw i8, ptr %0, i64 40
  %33 = load ptr, ptr %32, align 8, !tbaa !14
  %34 = sext i32 %1 to i64
  %35 = getelementptr %union.TValue, ptr %33, i64 %34
  %36 = getelementptr i8, ptr %35, i64 8
  store ptr %36, ptr %32, align 8, !tbaa !14
  br label %.loopexit

.loopexit:                                        ; preds = %23, %30, %31
  ret void
}